; Function Attrs: mustprogress uwtable
define noundef zeroext i1 @_ZNK24InterfaceSortFilterModel8lessThanERK11QModelIndexS2_(ptr noundef nonnull align 8 dereferenceable(72) %0, ptr noundef nonnull align 8 dereferenceable(24) %1, ptr noundef nonnull align 8 dereferenceable(24) %2) unnamed_addr #0 align 2 personality ptr @__gxx_personality_v0 {
  %4 = alloca %class.QVariant, align 8
  %5 = alloca %class.QModelIndex, align 8
  %6 = alloca %class.QVariant, align 8
  %7 = alloca %class.QModelIndex, align 8
  %8 = load i32, ptr %1, align 8
  tail call void @llvm.experimental.noalias.scope.decl(metadata !15)
  %9 = getelementptr inbounds i8, ptr %1, i64 16
  %10 = load ptr, ptr %9, align 8, !noalias !15
  %.not.i = icmp eq ptr %10, null
  br i1 %.not.i, label %20, label %11

11:                                               ; preds = %3
  %12 = getelementptr inbounds i8, ptr %1, i64 4
  %13 = load i32, ptr %12, align 4, !noalias !15
  %14 = icmp eq i32 %13, 11
  br i1 %14, label %15, label %16

15:                                               ; preds = %11
  call void @llvm.memcpy.p0.p0.i64(ptr noundef nonnull align 8 dereferenceable(24) %5, ptr noundef nonnull align 8 dereferenceable(24) %1, i64 24, i1 false)
  br label %_ZNK11QModelIndex7siblingEii.exit

16:                                               ; preds = %11
  %17 = load ptr, ptr %10, align 8, !noalias !15
  %18 = getelementptr inbounds i8, ptr %17, i64 112
  %19 = load ptr, ptr %18, align 8, !noalias !15
  call void %19(ptr dead_on_unwind nonnull writable sret(%class.QModelIndex) align 8 %5, ptr noundef nonnull align 8 dereferenceable(16) %10, i32 noundef %8, i32 noundef 11, ptr noundef nonnull align 8 dereferenceable(24) %1)
  br label %_ZNK11QModelIndex7siblingEii.exit

20:                                               ; preds = %3
  store i32 -1, ptr %5, align 8, !alias.scope !15
  %21 = getelementptr inbounds i8, ptr %5, i64 4
  store i32 -1, ptr %21, align 4, !alias.scope !15
  %22 = getelementptr inbounds i8, ptr %5, i64 8
  call void @llvm.memset.p0.i64(ptr noundef nonnull align 8 dereferenceable(16) %22, i8 0, i64 16, i1 false), !alias.scope !15
  br label %_ZNK11QModelIndex7siblingEii.exit

_ZNK11QModelIndex7siblingEii.exit:                ; preds = %15, %16, %20
  call void @llvm.experimental.noalias.scope.decl(metadata !18)
  %23 = getelementptr inbounds i8, ptr %5, i64 16
  %24 = load ptr, ptr %23, align 8, !noalias !18
  %.not.i16 = icmp eq ptr %24, null
  br i1 %.not.i16, label %29, label %25

25:                                               ; preds = %_ZNK11QModelIndex7siblingEii.exit
  %26 = load ptr, ptr %24, align 8, !noalias !18
  %27 = getelementptr inbounds i8, ptr %26, i64 144
  %28 = load ptr, ptr %27, align 8, !noalias !18
  call void %28(ptr dead_on_unwind nonnull writable sret(%class.QVariant) align 8 %4, ptr noundef nonnull align 8 dereferenceable(16) %24, ptr noundef nonnull align 8 dereferenceable(24) %5, i32 noundef 256)
  br label %_ZNK11QModelIndex4dataEi.exit

29:                                               ; preds = %_ZNK11QModelIndex7siblingEii.exit
  call void @llvm.memset.p0.i64(ptr noundef nonnull align 8 dereferenceable(24) %4, i8 0, i64 24, i1 false), !alias.scope !18
  %30 = getelementptr inbounds i8, ptr %4, i64 24
  store i64 2, ptr %30, align 8, !alias.scope !18
  br label %_ZNK11QModelIndex4dataEi.exit

_ZNK11QModelIndex4dataEi.exit:                    ; preds = %25, %29
  %31 = invoke noundef zeroext i1 @_ZNK8QVariant6toBoolEv(ptr noundef nonnull align 8 dereferenceable(32) %4)
          to label %32 unwind label %61

32:                                               ; preds = %_ZNK11QModelIndex4dataEi.exit
  call void @_ZN8QVariantD1Ev(ptr noundef nonnull align 8 dereferenceable(32) %4) #17
  %33 = load i32, ptr %2, align 8
  call void @llvm.experimental.noalias.scope.decl(metadata !21)
  %34 = getelementptr inbounds i8, ptr %2, i64 16
  %35 = load ptr, ptr %34, align 8, !noalias !21
  %.not.i17 = icmp eq ptr %35, null
  br i1 %.not.i17, label %45, label %36

36:                                               ; preds = %32
  %37 = getelementptr inbounds i8, ptr %2, i64 4
  %38 = load i32, ptr %37, align 4, !noalias !21
  %39 = icmp eq i32 %38, 11
  br i1 %39, label %40, label %41

40:                                               ; preds = %36
  call void @llvm.memcpy.p0.p0.i64(ptr noundef nonnull align 8 dereferenceable(24) %7, ptr noundef nonnull align 8 dereferenceable(24) %2, i64 24, i1 false)
  br label %_ZNK11QModelIndex7siblingEii.exit19

41:                                               ; preds = %36
  %42 = load ptr, ptr %35, align 8, !noalias !21
  %43 = getelementptr inbounds i8, ptr %42, i64 112
  %44 = load ptr, ptr %43, align 8, !noalias !21
  call void %44(ptr dead_on_unwind nonnull writable sret(%class.QModelIndex) align 8 %7, ptr noundef nonnull align 8 dereferenceable(16) %35, i32 noundef %33, i32 noundef 11, ptr noundef nonnull align 8 dereferenceable(24) %2)
  br label %_ZNK11QModelIndex7siblingEii.exit19

45:                                               ; preds = %32
  store i32 -1, ptr %7, align 8, !alias.scope !21
  %46 = getelementptr inbounds i8, ptr %7, i64 4
  store i32 -1, ptr %46, align 4, !alias.scope !21
  %47 = getelementptr inbounds i8, ptr %7, i64 8
  call void @llvm.memset.p0.i64(ptr noundef nonnull align 8 dereferenceable(16) %47, i8 0, i64 16, i1 false), !alias.scope !21
  br label %_ZNK11QModelIndex7siblingEii.exit19

_ZNK11QModelIndex7siblingEii.exit19:              ; preds = %40, %41, %45
  call void @llvm.experimental.noalias.scope.decl(metadata !24)
  %48 = getelementptr inbounds i8, ptr %7, i64 16
  %49 = load ptr, ptr %48, align 8, !noalias !24
  %.not.i20 = icmp eq ptr %49, null
  br i1 %.not.i20, label %54, label %50

50:                                               ; preds = %_ZNK11QModelIndex7siblingEii.exit19
  %51 = load ptr, ptr %49, align 8, !noalias !24
  %52 = getelementptr inbounds i8, ptr %51, i64 144
  %53 = load ptr, ptr %52, align 8, !noalias !24
  call void %53(ptr dead_on_unwind nonnull writable sret(%class.QVariant) align 8 %6, ptr noundef nonnull align 8 dereferenceable(16) %49, ptr noundef nonnull align 8 dereferenceable(24) %7, i32 noundef 256)
  br label %_ZNK11QModelIndex4dataEi.exit21

54:                                               ; preds = %_ZNK11QModelIndex7siblingEii.exit19
  call void @llvm.memset.p0.i64(ptr noundef nonnull align 8 dereferenceable(24) %6, i8 0, i64 24, i1 false), !alias.scope !24
  %55 = getelementptr inbounds i8, ptr %6, i64 24
  store i64 2, ptr %55, align 8, !alias.scope !24
  br label %_ZNK11QModelIndex4dataEi.exit21

_ZNK11QModelIndex4dataEi.exit21:                  ; preds = %50, %54
  %56 = invoke noundef zeroext i1 @_ZNK8QVariant6toBoolEv(ptr noundef nonnull align 8 dereferenceable(32) %6)
          to label %57 unwind label %63

57:                                               ; preds = %_ZNK11QModelIndex4dataEi.exit21
  call void @_ZN8QVariantD1Ev(ptr noundef nonnull align 8 dereferenceable(32) %6) #17
  %58 = getelementptr inbounds i8, ptr %0, i64 20
  %59 = load i8, ptr %58, align 4
  %60 = and i8 %59, 1
  %.not = icmp eq i8 %60, 0
  %.not14 = xor i1 %56, true
  %brmerge = or i1 %.not, %.not14
  %brmerge15 = or i1 %31, %brmerge
  br i1 %brmerge15, label %65, label %67

61:                                               ; preds = %_ZNK11QModelIndex4dataEi.exit
  %62 = landingpad { ptr, i32 }
          cleanup
  br label %68

63:                                               ; preds = %_ZNK11QModelIndex4dataEi.exit21
  %64 = landingpad { ptr, i32 }
          cleanup
  br label %68

65:                                               ; preds = %57
  %66 = call noundef zeroext i1 @_ZNK21QSortFilterProxyModel8lessThanERK11QModelIndexS2_(ptr noundef nonnull align 8 dereferenceable(16) %0, ptr noundef nonnull align 8 dereferenceable(24) %1, ptr noundef nonnull align 8 dereferenceable(24) %2)
  br label %67

67:                                               ; preds = %57, %65
  %.0 = phi i1 [ %66, %65 ], [ true, %57 ]
  ret i1 %.0

68:                                               ; preds = %63, %61
  %.sink = phi ptr [ %6, %63 ], [ %4, %61 ]
  %.pn = phi { ptr, i32 } [ %64, %63 ], [ %62, %61 ]
  call void @_ZN8QVariantD1Ev(ptr noundef nonnull align 8 dereferenceable(32) %.sink) #17
  resume { ptr, i32 } %.pn
}